target datalayout = "e-m:e-p270:32:32-p271:32:32-p272:64:64-i64:64-i128:128-f80:128-n8:16:32:64-S128"
target triple = "x86_64-pc-linux-gnu"

%struct.AVProbeData = type { ptr, ptr, i32, ptr }

@.str.133 = private unnamed_addr constant [5 x i8] c"SDPX\00", align 1
@.str.134 = private unnamed_addr constant [5 x i8] c"XPDS\00", align 1

; Function Attrs: alwaysinline nounwind willreturn memory(none) uwtable
define internal i32 @av_bswap32(i32 noundef %0) #10 {
  %2 = alloca i32, align 4
  store i32 %0, ptr %2, align 4, !tbaa !28
  %3 = load i32, ptr %2, align 4, !tbaa !28
  %4 = shl i32 %3, 8
  %5 = and i32 %4, 65280
  %6 = load i32, ptr %2, align 4, !tbaa !28
  %7 = lshr i32 %6, 8
  %8 = and i32 %7, 255
  %9 = or i32 %5, %8
  %10 = shl i32 %9, 16
  %11 = load i32, ptr %2, align 4, !tbaa !28
  %12 = lshr i32 %11, 16
  %13 = shl i32 %12, 8
  %14 = and i32 %13, 65280
  %15 = load i32, ptr %2, align 4, !tbaa !28
  %16 = lshr i32 %15, 16
  %17 = lshr i32 %16, 8
  %18 = and i32 %17, 255
  %19 = or i32 %14, %18
  %20 = or i32 %10, %19
  ret i32 %20
}

; Function Attrs: nounwind uwtable
define internal i32 @dpx_probe(ptr noundef %0) #0 {
  %2 = alloca i32, align 4
  %3 = alloca ptr, align 8
  %4 = alloca ptr, align 8
  %5 = alloca i32, align 4
  %6 = alloca i32, align 4
  %7 = alloca i32, align 4
  %8 = alloca i32, align 4
  store ptr %0, ptr %3, align 8, !tbaa !139
  call void @llvm.lifetime.start.p0(i64 8, ptr %4) #12
  %9 = load ptr, ptr %3, align 8, !tbaa !139
  %10 = getelementptr inbounds nuw %struct.AVProbeData, ptr %9, i32 0, i32 1
  %11 = load ptr, ptr %10, align 8, !tbaa !96
  store ptr %11, ptr %4, align 8, !tbaa !76
  call void @llvm.lifetime.start.p0(i64 4, ptr %5) #12
  call void @llvm.lifetime.start.p0(i64 4, ptr %6) #12
  call void @llvm.lifetime.start.p0(i64 4, ptr %7) #12
  %12 = load ptr, ptr %4, align 8, !tbaa !76
  %13 = load i32, ptr %12, align 1, !tbaa !77
  %14 = load i32, ptr @.str.133, align 1, !tbaa !77
  %15 = icmp eq i32 %13, %14
  %16 = zext i1 %15 to i32
  store i32 %16, ptr %7, align 4, !tbaa !28
  %17 = load ptr, ptr %3, align 8, !tbaa !139
  %18 = getelementptr inbounds nuw %struct.AVProbeData, ptr %17, i32 0, i32 2
  %19 = load i32, ptr %18, align 8, !tbaa !97
  %20 = icmp slt i32 %19, 780
  br i1 %20, label %21, label %22

21:                                               ; preds = %1
  store i32 0, ptr %2, align 4
  store i32 1, ptr %8, align 4
  br label %73

22:                                               ; preds = %1
  %23 = load i32, ptr %7, align 4, !tbaa !28
  %24 = icmp ne i32 %23, 0
  br i1 %24, label %25, label %32

25:                                               ; preds = %22
  %26 = load ptr, ptr %3, align 8, !tbaa !139
  %27 = getelementptr inbounds nuw %struct.AVProbeData, ptr %26, i32 0, i32 1
  %28 = load ptr, ptr %27, align 8, !tbaa !96
  %29 = getelementptr inbounds i8, ptr %28, i64 772
  %30 = load i32, ptr %29, align 1, !tbaa !77
  %31 = call i32 @av_bswap32(i32 noundef %30) #15
  br label %38

32:                                               ; preds = %22
  %33 = load ptr, ptr %3, align 8, !tbaa !139
  %34 = getelementptr inbounds nuw %struct.AVProbeData, ptr %33, i32 0, i32 1
  %35 = load ptr, ptr %34, align 8, !tbaa !96
  %36 = getelementptr inbounds i8, ptr %35, i64 772
  %37 = load i32, ptr %36, align 1, !tbaa !77
  br label %38

38:                                               ; preds = %32, %25
  %39 = phi i32 [ %31, %25 ], [ %37, %32 ]
  store i32 %39, ptr %5, align 4, !tbaa !28
  %40 = load i32, ptr %7, align 4, !tbaa !28
  %41 = icmp ne i32 %40, 0
  br i1 %41, label %42, label %49

42:                                               ; preds = %38
  %43 = load ptr, ptr %3, align 8, !tbaa !139
  %44 = getelementptr inbounds nuw %struct.AVProbeData, ptr %43, i32 0, i32 1
  %45 = load ptr, ptr %44, align 8, !tbaa !96
  %46 = getelementptr inbounds i8, ptr %45, i64 776
  %47 = load i32, ptr %46, align 1, !tbaa !77
  %48 = call i32 @av_bswap32(i32 noundef %47) #15
  br label %55

49:                                               ; preds = %38
  %50 = load ptr, ptr %3, align 8, !tbaa !139
  %51 = getelementptr inbounds nuw %struct.AVProbeData, ptr %50, i32 0, i32 1
  %52 = load ptr, ptr %51, align 8, !tbaa !96
  %53 = getelementptr inbounds i8, ptr %52, i64 776
  %54 = load i32, ptr %53, align 1, !tbaa !77
  br label %55

55:                                               ; preds = %49, %42
  %56 = phi i32 [ %48, %42 ], [ %54, %49 ]
  store i32 %56, ptr %6, align 4, !tbaa !28
  %57 = load i32, ptr %5, align 4, !tbaa !28
  %58 = icmp sle i32 %57, 0
  br i1 %58, label %62, label %59

59:                                               ; preds = %55
  %60 = load i32, ptr %6, align 4, !tbaa !28
  %61 = icmp sle i32 %60, 0
  br i1 %61, label %62, label %63

62:                                               ; preds = %59, %55
  store i32 0, ptr %2, align 4
  store i32 1, ptr %8, align 4
  br label %73

63:                                               ; preds = %59
  %64 = load i32, ptr %7, align 4, !tbaa !28
  %65 = icmp ne i32 %64, 0
  br i1 %65, label %71, label %66

66:                                               ; preds = %63
  %67 = load ptr, ptr %4, align 8, !tbaa !76
  %68 = load i32, ptr %67, align 1, !tbaa !77
  %69 = load i32, ptr @.str.134, align 1, !tbaa !77
  %70 = icmp eq i32 %68, %69
  br i1 %70, label %71, label %72

71:                                               ; preds = %66, %63
  store i32 51, ptr %2, align 4
  store i32 1, ptr %8, align 4
  br label %73

72:                                               ; preds = %66
  store i32 0, ptr %2, align 4
  store i32 1, ptr %8, align 4
  br label %73

73:                                               ; preds = %72, %71, %62, %21
  call void @llvm.lifetime.end.p0(i64 4, ptr %7) #12
  call void @llvm.lifetime.end.p0(i64 4, ptr %6) #12
  call void @llvm.lifetime.end.p0(i64 4, ptr %5) #12
  call void @llvm.lifetime.end.p0(i64 8, ptr %4) #12
  %74 = load i32, ptr %2, align 4
  ret i32 %74
}