; Function Attrs: mustprogress nofree norecurse nosync nounwind willreturn memory(read, inaccessiblemem: none) uwtable
define internal range(i32 0, 52) i32 @dpx_probe(ptr noundef readonly captures(none) %0) #8 {
  %2 = getelementptr inbounds nuw i8, ptr %0, i64 8
  %3 = load ptr, ptr %2, align 8, !tbaa !90
  %4 = load i32, ptr %3, align 1, !tbaa !68
  %5 = getelementptr inbounds nuw i8, ptr %0, i64 16
  %6 = load i32, ptr %5, align 8, !tbaa !91
  %7 = icmp slt i32 %6, 780
  br i1 %7, label %25, label %8

8:                                                ; preds = %1
  %9 = icmp eq i32 %4, 1481655379
  %10 = getelementptr inbounds nuw i8, ptr %3, i64 772
  %11 = load i32, ptr %10, align 1, !tbaa !68
  br i1 %9, label %.thread14, label %18

.thread14:                                        ; preds = %8
  %12 = tail call i32 @llvm.bswap.i32(i32 %11)
  %13 = getelementptr inbounds nuw i8, ptr %3, i64 776
  %14 = load i32, ptr %13, align 1, !tbaa !68
  %15 = tail call i32 @llvm.bswap.i32(i32 %14)
  %16 = icmp slt i32 %12, 1
  %17 = icmp slt i32 %15, 1
  %or.cond15 = select i1 %16, i1 true, i1 %17
  %.mux17 = select i1 %or.cond15, i32 0, i32 51
  br label %25

18:                                               ; preds = %8
  %19 = getelementptr inbounds nuw i8, ptr %3, i64 776
  %20 = load i32, ptr %19, align 1, !tbaa !68
  %21 = icmp slt i32 %11, 1
  %22 = icmp slt i32 %20, 1
  %or.cond = select i1 %21, i1 true, i1 %22
  br i1 %or.cond, label %25, label %23

23:                                               ; preds = %18
  %24 = icmp eq i32 %4, 1396985944
  %spec.select = select i1 %24, i32 51, i32 0
  br label %25

25:                                               ; preds = %.thread14, %23, %18, %1
  %.0 = phi i32 [ 0, %1 ], [ 0, %18 ], [ %spec.select, %23 ], [ %.mux17, %.thread14 ]
  ret i32 %.0
}